; ModuleID = '9/1224.c'
source_filename = "9/1224.c"
target datalayout = "e-m:e-p270:32:32-p271:32:32-p272:64:64-i64:64-f80:128-n8:16:32:64-S128"
target triple = "x86_64-pc-linux-gnu"

%struct.br = type { [10 x i8], i32 }

@.str = private unnamed_addr constant [3 x i8] c"%d\00", align 1
@.str.1 = private unnamed_addr constant [5 x i8] c"%s%d\00", align 1
@.str.2 = private unnamed_addr constant [4 x i8] c"%s\0A\00", align 1

; Function Attrs: noinline nounwind uwtable
define dso_local i32 @main() #0 {
  %1 = alloca i32, align 4
  %2 = alloca i32, align 4
  %3 = alloca i32, align 4
  %4 = alloca i32, align 4
  %5 = alloca i32, align 4
  %6 = alloca i32, align 4
  %7 = alloca %struct.br*, align 8
  %8 = alloca [100 x %struct.br], align 16
  %9 = alloca %struct.br, align 4
  store i32 0, i32* %1, align 4
  %10 = call i32 (i8*, ...) @__isoc99_scanf(i8* getelementptr inbounds ([3 x i8], [3 x i8]* @.str, i64 0, i64 0), i32* %3)
  %11 = load i32, i32* %3, align 4
  %12 = sext i32 %11 to i64
  %13 = mul i64 16, %12
  %14 = call noalias i8* @malloc(i64 %13) #4
  %15 = bitcast i8* %14 to %struct.br*
  store %struct.br* %15, %struct.br** %7, align 8
  store i32 0, i32* %2, align 4
  br label %16

16:                                               ; preds = %33, %0
  %17 = load i32, i32* %2, align 4
  %18 = load i32, i32* %3, align 4
  %19 = icmp slt i32 %17, %18
  br i1 %19, label %20, label %36

20:                                               ; preds = %16
  %21 = load %struct.br*, %struct.br** %7, align 8
  %22 = load i32, i32* %2, align 4
  %23 = sext i32 %22 to i64
  %24 = getelementptr inbounds %struct.br, %struct.br* %21, i64 %23
  %25 = getelementptr inbounds %struct.br, %struct.br* %24, i32 0, i32 0
  %26 = getelementptr inbounds [10 x i8], [10 x i8]* %25, i64 0, i64 0
  %27 = load %struct.br*, %struct.br** %7, align 8
  %28 = load i32, i32* %2, align 4
  %29 = sext i32 %28 to i64
  %30 = getelementptr inbounds %struct.br, %struct.br* %27, i64 %29
  %31 = getelementptr inbounds %struct.br, %struct.br* %30, i32 0, i32 1
  %32 = call i32 (i8*, ...) @__isoc99_scanf(i8* getelementptr inbounds ([5 x i8], [5 x i8]* @.str.1, i64 0, i64 0), i8* %26, i32* %31)
  br label %33

33:                                               ; preds = %20
  %34 = load i32, i32* %2, align 4
  %35 = add nsw i32 %34, 1
  store i32 %35, i32* %2, align 4
  br label %16

36:                                               ; preds = %16
  store i32 0, i32* %2, align 4
  store i32 0, i32* %4, align 4
  br label %37

37:                                               ; preds = %121, %36
  %38 = load i32, i32* %2, align 4
  %39 = load i32, i32* %3, align 4
  %40 = icmp slt i32 %38, %39
  br i1 %40, label %41, label %124

41:                                               ; preds = %37
  %42 = load %struct.br*, %struct.br** %7, align 8
  %43 = load i32, i32* %2, align 4
  %44 = sext i32 %43 to i64
  %45 = getelementptr inbounds %struct.br, %struct.br* %42, i64 %44
  %46 = getelementptr inbounds %struct.br, %struct.br* %45, i32 0, i32 1
  %47 = load i32, i32* %46, align 4
  %48 = icmp sge i32 %47, 60
  br i1 %48, label %49, label %66

49:                                               ; preds = %41
  %50 = load i32, i32* %4, align 4
  %51 = sext i32 %50 to i64
  %52 = getelementptr inbounds [100 x %struct.br], [100 x %struct.br]* %8, i64 0, i64 %51
  %53 = load %struct.br*, %struct.br** %7, align 8
  %54 = load i32, i32* %2, align 4
  %55 = sext i32 %54 to i64
  %56 = getelementptr inbounds %struct.br, %struct.br* %53, i64 %55
  %57 = bitcast %struct.br* %52 to i8*
  %58 = bitcast %struct.br* %56 to i8*
  call void @llvm.memcpy.p0i8.p0i8.i64(i8* align 16 %57, i8* align 4 %58, i64 16, i1 false)
  %59 = load i32, i32* %4, align 4
  %60 = add nsw i32 %59, 1
  store i32 %60, i32* %4, align 4
  %61 = load %struct.br*, %struct.br** %7, align 8
  %62 = load i32, i32* %2, align 4
  %63 = sext i32 %62 to i64
  %64 = getelementptr inbounds %struct.br, %struct.br* %61, i64 %63
  %65 = getelementptr inbounds %struct.br, %struct.br* %64, i32 0, i32 1
  store i32 -1, i32* %65, align 4
  br label %66

66:                                               ; preds = %49, %41
  store i32 0, i32* %6, align 4
  br label %67

67:                                               ; preds = %117, %66
  %68 = load i32, i32* %6, align 4
  %69 = load i32, i32* %4, align 4
  %70 = icmp slt i32 %68, %69
  br i1 %70, label %71, label %120

71:                                               ; preds = %67
  %72 = load i32, i32* %4, align 4
  %73 = sub nsw i32 %72, 1
  store i32 %73, i32* %5, align 4
  br label %74

74:                                               ; preds = %113, %71
  %75 = load i32, i32* %5, align 4
  %76 = load i32, i32* %6, align 4
  %77 = icmp sgt i32 %75, %76
  br i1 %77, label %78, label %116

78:                                               ; preds = %74
  %79 = load i32, i32* %5, align 4
  %80 = sext i32 %79 to i64
  %81 = getelementptr inbounds [100 x %struct.br], [100 x %struct.br]* %8, i64 0, i64 %80
  %82 = getelementptr inbounds %struct.br, %struct.br* %81, i32 0, i32 1
  %83 = load i32, i32* %82, align 4
  %84 = load i32, i32* %5, align 4
  %85 = sub nsw i32 %84, 1
  %86 = sext i32 %85 to i64
  %87 = getelementptr inbounds [100 x %struct.br], [100 x %struct.br]* %8, i64 0, i64 %86
  %88 = getelementptr inbounds %struct.br, %struct.br* %87, i32 0, i32 1
  %89 = load i32, i32* %88, align 4
  %90 = icmp sgt i32 %83, %89
  br i1 %90, label %91, label %112

91:                                               ; preds = %78
  %92 = load i32, i32* %5, align 4
  %93 = sext i32 %92 to i64
  %94 = getelementptr inbounds [100 x %struct.br], [100 x %struct.br]* %8, i64 0, i64 %93
  %95 = bitcast %struct.br* %9 to i8*
  %96 = bitcast %struct.br* %94 to i8*
  call void @llvm.memcpy.p0i8.p0i8.i64(i8* align 4 %95, i8* align 16 %96, i64 16, i1 false)
  %97 = load i32, i32* %5, align 4
  %98 = sext i32 %97 to i64
  %99 = getelementptr inbounds [100 x %struct.br], [100 x %struct.br]* %8, i64 0, i64 %98
  %100 = load i32, i32* %5, align 4
  %101 = sub nsw i32 %100, 1
  %102 = sext i32 %101 to i64
  %103 = getelementptr inbounds [100 x %struct.br], [100 x %struct.br]* %8, i64 0, i64 %102
  %104 = bitcast %struct.br* %99 to i8*
  %105 = bitcast %struct.br* %103 to i8*
  call void @llvm.memcpy.p0i8.p0i8.i64(i8* align 16 %104, i8* align 16 %105, i64 16, i1 false)
  %106 = load i32, i32* %5, align 4
  %107 = sub nsw i32 %106, 1
  %108 = sext i32 %107 to i64
  %109 = getelementptr inbounds [100 x %struct.br], [100 x %struct.br]* %8, i64 0, i64 %108
  %110 = bitcast %struct.br* %109 to i8*
  %111 = bitcast %struct.br* %9 to i8*
  call void @llvm.memcpy.p0i8.p0i8.i64(i8* align 16 %110, i8* align 4 %111, i64 16, i1 false)
  br label %112

112:                                              ; preds = %91, %78
  br label %113

113:                                              ; preds = %112
  %114 = load i32, i32* %5, align 4
  %115 = add nsw i32 %114, -1
  store i32 %115, i32* %5, align 4
  br label %74

116:                                              ; preds = %74
  br label %117

117:                                              ; preds = %116
  %118 = load i32, i32* %6, align 4
  %119 = add nsw i32 %118, 1
  store i32 %119, i32* %6, align 4
  br label %67

120:                                              ; preds = %67
  br label %121

121:                                              ; preds = %120
  %122 = load i32, i32* %2, align 4
  %123 = add nsw i32 %122, 1
  store i32 %123, i32* %2, align 4
  br label %37

124:                                              ; preds = %37
  store i32 0, i32* %2, align 4
  br label %125

125:                                              ; preds = %136, %124
  %126 = load i32, i32* %2, align 4
  %127 = load i32, i32* %4, align 4
  %128 = icmp slt i32 %126, %127
  br i1 %128, label %129, label %139

129:                                              ; preds = %125
  %130 = load i32, i32* %2, align 4
  %131 = sext i32 %130 to i64
  %132 = getelementptr inbounds [100 x %struct.br], [100 x %struct.br]* %8, i64 0, i64 %131
  %133 = getelementptr inbounds %struct.br, %struct.br* %132, i32 0, i32 0
  %134 = getelementptr inbounds [10 x i8], [10 x i8]* %133, i64 0, i64 0
  %135 = call i32 (i8*, ...) @printf(i8* getelementptr inbounds ([4 x i8], [4 x i8]* @.str.2, i64 0, i64 0), i8* %134)
  br label %136

136:                                              ; preds = %129
  %137 = load i32, i32* %2, align 4
  %138 = add nsw i32 %137, 1
  store i32 %138, i32* %2, align 4
  br label %125

139:                                              ; preds = %125
  store i32 0, i32* %2, align 4
  br label %140

140:                                              ; preds = %161, %139
  %141 = load i32, i32* %2, align 4
  %142 = load i32, i32* %3, align 4
  %143 = icmp slt i32 %141, %142
  br i1 %143, label %144, label %164

144:                                              ; preds = %140
  %145 = load %struct.br*, %struct.br** %7, align 8
  %146 = load i32, i32* %2, align 4
  %147 = sext i32 %146 to i64
  %148 = getelementptr inbounds %struct.br, %struct.br* %145, i64 %147
  %149 = getelementptr inbounds %struct.br, %struct.br* %148, i32 0, i32 1
  %150 = load i32, i32* %149, align 4
  %151 = icmp ne i32 %150, -1
  br i1 %151, label %152, label %160

152:                                              ; preds = %144
  %153 = load %struct.br*, %struct.br** %7, align 8
  %154 = load i32, i32* %2, align 4
  %155 = sext i32 %154 to i64
  %156 = getelementptr inbounds %struct.br, %struct.br* %153, i64 %155
  %157 = getelementptr inbounds %struct.br, %struct.br* %156, i32 0, i32 0
  %158 = getelementptr inbounds [10 x i8], [10 x i8]* %157, i64 0, i64 0
  %159 = call i32 (i8*, ...) @printf(i8* getelementptr inbounds ([4 x i8], [4 x i8]* @.str.2, i64 0, i64 0), i8* %158)
  br label %160

160:                                              ; preds = %152, %144
  br label %161

161:                                              ; preds = %160
  %162 = load i32, i32* %2, align 4
  %163 = add nsw i32 %162, 1
  store i32 %163, i32* %2, align 4
  br label %140

164:                                              ; preds = %140
  ret i32 0
}

declare dso_local i32 @__isoc99_scanf(i8*, ...) #1

; Function Attrs: nounwind
declare dso_local noalias i8* @malloc(i64) #2

; Function Attrs: argmemonly nounwind willreturn
declare void @llvm.memcpy.p0i8.p0i8.i64(i8* noalias nocapture writeonly, i8* noalias nocapture readonly, i64, i1 immarg) #3

declare dso_local i32 @printf(i8*, ...) #1


!llvm.module.flags = !{!0}
!llvm.ident = !{!1}

!0 = !{i32 1, !"wchar_size", i32 4}
!1 = !{!"clang version 10.0.0-4ubuntu1 "}
